; Function Attrs: mustprogress uwtable
define hidden noundef ptr @_ZN17arith_decl_plugin14get_some_valueEP4sort(ptr noundef nonnull align 8 dereferenceable(441) %0, ptr noundef readnone captures(address) %1) unnamed_addr #3 align 2 personality ptr @__gxx_personality_v0 {
  %3 = alloca %class.rational, align 8
  call void @llvm.lifetime.start.p0(i64 32, ptr nonnull %3) #24
  %4 = getelementptr inbounds nuw i8, ptr %3, i64 4
  %5 = getelementptr inbounds nuw i8, ptr %3, i64 8
  store ptr null, ptr %5, align 8, !tbaa !26
  %6 = getelementptr inbounds nuw i8, ptr %3, i64 16
  store i32 1, ptr %6, align 8, !tbaa !23
  %7 = getelementptr inbounds nuw i8, ptr %3, i64 20
  store i8 0, ptr %7, align 4
  %8 = getelementptr inbounds nuw i8, ptr %3, i64 24
  store ptr null, ptr %8, align 8, !tbaa !26
  %9 = load ptr, ptr @_ZN8rational13g_mpq_managerE, align 8, !tbaa !37
  store i32 0, ptr %3, align 8, !tbaa !23
  store i8 0, ptr %4, align 4
  call void @_ZN11mpz_managerILb1EE3delEPS0_R3mpz(ptr noundef nonnull align 8 dereferenceable(728) %9, ptr noundef nonnull align 8 dereferenceable(16) %6)
  store i32 1, ptr %6, align 8, !tbaa !23
  %10 = load i8, ptr %7, align 4
  %11 = and i8 %10, -2
  store i8 %11, ptr %7, align 4
  %12 = getelementptr inbounds nuw i8, ptr %0, i64 64
  %13 = load ptr, ptr %12, align 8, !tbaa !127
  %14 = icmp eq ptr %1, %13
  %15 = invoke noundef ptr @_ZN17arith_decl_plugin10mk_numeralERK8rationalb(ptr noundef nonnull align 8 dereferenceable(441) %0, ptr noundef nonnull align 8 dereferenceable(32) %3, i1 noundef zeroext %14)
          to label %16 unwind label %21

16:                                               ; preds = %2
  %17 = load ptr, ptr @_ZN8rational13g_mpq_managerE, align 8, !tbaa !37
  invoke void @_ZN11mpz_managerILb1EE3delEPS0_R3mpz(ptr noundef %17, ptr noundef nonnull align 8 dereferenceable(32) %3)
          to label %.noexc.i unwind label %18

.noexc.i:                                         ; preds = %16
  invoke void @_ZN11mpz_managerILb1EE3delEPS0_R3mpz(ptr noundef %17, ptr noundef nonnull align 8 dereferenceable(16) %6)
          to label %_ZN8rationalD2Ev.exit unwind label %18

18:                                               ; preds = %.noexc.i, %16
  %19 = landingpad { ptr, i32 }
          catch ptr null
  %20 = extractvalue { ptr, i32 } %19, 0
  call void @__clang_call_terminate(ptr %20) #25
  unreachable

_ZN8rationalD2Ev.exit:                            ; preds = %.noexc.i
  call void @llvm.lifetime.end.p0(i64 32, ptr nonnull %3) #24
  ret ptr %15

21:                                               ; preds = %2
  %22 = landingpad { ptr, i32 }
          cleanup
  call void @_ZN8rationalD2Ev(ptr noundef nonnull align 8 dereferenceable(32) %3) #24
  call void @llvm.lifetime.end.p0(i64 32, ptr nonnull %3) #24
  resume { ptr, i32 } %22
}